target datalayout = "e-m:e-p270:32:32-p271:32:32-p272:64:64-i64:64-i128:128-f80:128-n8:16:32:64-S128"
target triple = "x86_64-pc-linux-gnu"

%struct.H5O_t = type { %struct.H5C_cache_entry_t, i64, i64, i8, i64, i8, i32, i8, i8, i64, i64, i64, i64, i32, i32, i64, i64, ptr, i64, i64, i64, i64, ptr, i8, ptr }
%struct.H5C_cache_entry_t = type { ptr, i64, i64, ptr, i8, ptr, i8, i8, i8, i8, i32, i8, i8, i8, i8, i8, i32, ptr, i32, i32, i32, i32, i32, i8, i8, ptr, ptr, ptr, ptr, ptr, ptr, i8, i32, i8, i64, ptr, i64, i64, i32, i8, i32, i32, i8, ptr, ptr, ptr }

@.str.4 = private unnamed_addr constant [100 x i8] c"generated/home/dtcxzyw/WorkSpace/Projects/compilers/llvm-opt-benchmark/bench/hdf5/hdf5/src/H5Oint.c\00", align 1
@H5E_OHDR_g = external global i64, align 8
@H5E_PLIST_g = external global i64, align 8
@.str.12 = private unnamed_addr constant [20 x i8] c"object header flags\00", align 1
@H5E_CANTSET_g = external global i64, align 8
@.str.15 = private unnamed_addr constant [17 x i8] c"max compact attr\00", align 1
@.str.17 = private unnamed_addr constant [15 x i8] c"min dense attr\00", align 1
@H5E_CANTPROTECT_g = external global i64, align 8
@.str.41 = private unnamed_addr constant [29 x i8] c"unable to load object header\00", align 1
@H5E_CANTUNPROTECT_g = external global i64, align 8
@.str.47 = private unnamed_addr constant [32 x i8] c"unable to release object header\00", align 1
@__func__.H5O_get_create_plist = private unnamed_addr constant [21 x i8] c"H5O_get_create_plist\00", align 1
@.str.75 = private unnamed_addr constant [56 x i8] c"can't set max. # of compact attributes in property list\00", align 1
@.str.76 = private unnamed_addr constant [54 x i8] c"can't set min. # of dense attributes in property list\00", align 1
@.str.77 = private unnamed_addr constant [30 x i8] c"can't set object header flags\00", align 1

; Function Attrs: nounwind uwtable
define i32 @H5O_get_create_plist(ptr noundef %0, ptr noundef %1) #0 {
  %3 = alloca ptr, align 8
  %4 = alloca ptr, align 8
  %5 = alloca ptr, align 8
  %6 = alloca i32, align 4
  %7 = alloca i8, align 1
  %8 = alloca i8, align 1
  store ptr %0, ptr %3, align 8
  store ptr %1, ptr %4, align 8
  store ptr null, ptr %5, align 8
  store i32 0, ptr %6, align 4
  store i8 0, ptr %7, align 1
  %9 = load ptr, ptr %3, align 8
  %10 = call ptr @H5O_protect(ptr noundef %9, i32 noundef 128, i1 noundef zeroext false)
  store ptr %10, ptr %5, align 8
  %11 = icmp eq ptr null, %10
  br i1 %11, label %12, label %27

12:                                               ; preds = %2
  br label %13

13:                                               ; preds = %12
  br label %14

14:                                               ; preds = %13
  br label %15

15:                                               ; preds = %14
  %16 = load i64, ptr @H5E_OHDR_g, align 8
  %17 = load i64, ptr @H5E_CANTPROTECT_g, align 8
  %18 = call i32 (ptr, ptr, i32, i64, i64, ptr, ...) @H5E_printf_stack(ptr noundef @.str.4, ptr noundef @__func__.H5O_get_create_plist, i32 noundef 2249, i64 noundef %16, i64 noundef %17, ptr noundef @.str.41)
  br label %19

19:                                               ; preds = %15
  store i8 1, ptr %7, align 1
  %20 = load i8, ptr %7, align 1
  %21 = trunc i8 %20 to i1
  %22 = zext i1 %21 to i8
  store i8 %22, ptr %7, align 1
  br label %23

23:                                               ; preds = %19
  br label %24

24:                                               ; preds = %23
  store i32 -1, ptr %6, align 4
  br label %104

25:                                               ; No predecessors!
  br label %26

26:                                               ; preds = %25
  br label %27

27:                                               ; preds = %26, %2
  %28 = load ptr, ptr %5, align 8
  %29 = getelementptr inbounds %struct.H5O_t, ptr %28, i32 0, i32 7
  %30 = load i8, ptr %29, align 8
  %31 = zext i8 %30 to i32
  %32 = icmp sgt i32 %31, 1
  br i1 %32, label %33, label %103

33:                                               ; preds = %27
  %34 = load ptr, ptr %4, align 8
  %35 = load ptr, ptr %5, align 8
  %36 = getelementptr inbounds %struct.H5O_t, ptr %35, i32 0, i32 13
  %37 = call i32 @H5P_set(ptr noundef %34, ptr noundef @.str.15, ptr noundef %36)
  %38 = icmp slt i32 %37, 0
  br i1 %38, label %39, label %54

39:                                               ; preds = %33
  br label %40

40:                                               ; preds = %39
  br label %41

41:                                               ; preds = %40
  br label %42

42:                                               ; preds = %41
  %43 = load i64, ptr @H5E_OHDR_g, align 8
  %44 = load i64, ptr @H5E_CANTSET_g, align 8
  %45 = call i32 (ptr, ptr, i32, i64, i64, ptr, ...) @H5E_printf_stack(ptr noundef @.str.4, ptr noundef @__func__.H5O_get_create_plist, i32 noundef 2258, i64 noundef %43, i64 noundef %44, ptr noundef @.str.75)
  br label %46

46:                                               ; preds = %42
  store i8 1, ptr %7, align 1
  %47 = load i8, ptr %7, align 1
  %48 = trunc i8 %47 to i1
  %49 = zext i1 %48 to i8
  store i8 %49, ptr %7, align 1
  br label %50

50:                                               ; preds = %46
  br label %51

51:                                               ; preds = %50
  store i32 -1, ptr %6, align 4
  br label %104

52:                                               ; No predecessors!
  br label %53

53:                                               ; preds = %52
  br label %54

54:                                               ; preds = %53, %33
  %55 = load ptr, ptr %4, align 8
  %56 = load ptr, ptr %5, align 8
  %57 = getelementptr inbounds %struct.H5O_t, ptr %56, i32 0, i32 14
  %58 = call i32 @H5P_set(ptr noundef %55, ptr noundef @.str.17, ptr noundef %57)
  %59 = icmp slt i32 %58, 0
  br i1 %59, label %60, label %75

60:                                               ; preds = %54
  br label %61

61:                                               ; preds = %60
  br label %62

62:                                               ; preds = %61
  br label %63

63:                                               ; preds = %62
  %64 = load i64, ptr @H5E_OHDR_g, align 8
  %65 = load i64, ptr @H5E_CANTSET_g, align 8
  %66 = call i32 (ptr, ptr, i32, i64, i64, ptr, ...) @H5E_printf_stack(ptr noundef @.str.4, ptr noundef @__func__.H5O_get_create_plist, i32 noundef 2260, i64 noundef %64, i64 noundef %65, ptr noundef @.str.76)
  br label %67

67:                                               ; preds = %63
  store i8 1, ptr %7, align 1
  %68 = load i8, ptr %7, align 1
  %69 = trunc i8 %68 to i1
  %70 = zext i1 %69 to i8
  store i8 %70, ptr %7, align 1
  br label %71

71:                                               ; preds = %67
  br label %72

72:                                               ; preds = %71
  store i32 -1, ptr %6, align 4
  br label %104

73:                                               ; No predecessors!
  br label %74

74:                                               ; preds = %73
  br label %75

75:                                               ; preds = %74, %54
  br label %76

76:                                               ; preds = %75
  %77 = load ptr, ptr %5, align 8
  %78 = getelementptr inbounds %struct.H5O_t, ptr %77, i32 0, i32 8
  %79 = load i8, ptr %78, align 1
  %80 = zext i8 %79 to i32
  %81 = and i32 %80, 44
  %82 = trunc i32 %81 to i8
  store i8 %82, ptr %8, align 1
  br label %83

83:                                               ; preds = %76
  %84 = load ptr, ptr %4, align 8
  %85 = call i32 @H5P_set(ptr noundef %84, ptr noundef @.str.12, ptr noundef %8)
  %86 = icmp slt i32 %85, 0
  br i1 %86, label %87, label %102

87:                                               ; preds = %83
  br label %88

88:                                               ; preds = %87
  br label %89

89:                                               ; preds = %88
  br label %90

90:                                               ; preds = %89
  %91 = load i64, ptr @H5E_PLIST_g, align 8
  %92 = load i64, ptr @H5E_CANTSET_g, align 8
  %93 = call i32 (ptr, ptr, i32, i64, i64, ptr, ...) @H5E_printf_stack(ptr noundef @.str.4, ptr noundef @__func__.H5O_get_create_plist, i32 noundef 2270, i64 noundef %91, i64 noundef %92, ptr noundef @.str.77)
  br label %94

94:                                               ; preds = %90
  store i8 1, ptr %7, align 1
  %95 = load i8, ptr %7, align 1
  %96 = trunc i8 %95 to i1
  %97 = zext i1 %96 to i8
  store i8 %97, ptr %7, align 1
  br label %98

98:                                               ; preds = %94
  br label %99

99:                                               ; preds = %98
  store i32 -1, ptr %6, align 4
  br label %104

100:                                              ; No predecessors!
  br label %101

101:                                              ; preds = %100
  br label %102

102:                                              ; preds = %101, %83
  br label %103

103:                                              ; preds = %102, %27
  br label %104

104:                                              ; preds = %103, %99, %72, %51, %24
  %105 = load ptr, ptr %5, align 8
  %106 = icmp ne ptr %105, null
  br i1 %106, label %107, label %125

107:                                              ; preds = %104
  %108 = load ptr, ptr %3, align 8
  %109 = load ptr, ptr %5, align 8
  %110 = call i32 @H5O_unprotect(ptr noundef %108, ptr noundef %109, i32 noundef 0)
  %111 = icmp slt i32 %110, 0
  br i1 %111, label %112, label %125

112:                                              ; preds = %107
  br label %113

113:                                              ; preds = %112
  br label %114

114:                                              ; preds = %113
  br label %115

115:                                              ; preds = %114
  %116 = load i64, ptr @H5E_OHDR_g, align 8
  %117 = load i64, ptr @H5E_CANTUNPROTECT_g, align 8
  %118 = call i32 (ptr, ptr, i32, i64, i64, ptr, ...) @H5E_printf_stack(ptr noundef @.str.4, ptr noundef @__func__.H5O_get_create_plist, i32 noundef 2275, i64 noundef %116, i64 noundef %117, ptr noundef @.str.47)
  br label %119

119:                                              ; preds = %115
  store i8 1, ptr %7, align 1
  %120 = load i8, ptr %7, align 1
  %121 = trunc i8 %120 to i1
  %122 = zext i1 %121 to i8
  store i8 %122, ptr %7, align 1
  br label %123

123:                                              ; preds = %119
  store i32 -1, ptr %6, align 4
  br label %124

124:                                              ; preds = %123
  br label %125

125:                                              ; preds = %124, %107, %104
  %126 = load i32, ptr %6, align 4
  ret i32 %126
}