; Function Attrs: nounwind uwtable
define range(i32 -1, 1) i32 @H5O_get_create_plist(ptr nocapture noundef readonly %0, ptr noundef %1) local_unnamed_addr #1 {
  %3 = alloca i8, align 1
  %4 = tail call ptr @H5O_protect(ptr noundef %0, i32 noundef 128, i1 noundef zeroext false)
  %5 = icmp eq ptr %4, null
  br i1 %5, label %36, label %6

6:                                                ; preds = %2
  %7 = getelementptr inbounds i8, ptr %4, i64 288
  %8 = load i8, ptr %7, align 8
  %9 = icmp ugt i8 %8, 1
  br i1 %9, label %10, label %40

10:                                               ; preds = %6
  %11 = getelementptr inbounds i8, ptr %4, i64 328
  %12 = tail call i32 @H5P_set(ptr noundef %1, ptr noundef nonnull @.str.15, ptr noundef nonnull %11) #11
  %13 = icmp slt i32 %12, 0
  br i1 %13, label %14, label %18

14:                                               ; preds = %10
  %15 = load i64, ptr @H5E_OHDR_g, align 8
  %16 = load i64, ptr @H5E_CANTSET_g, align 8
  %17 = tail call i32 (ptr, ptr, i32, i64, i64, ptr, ...) @H5E_printf_stack(ptr noundef nonnull @.str.4, ptr noundef nonnull @__func__.H5O_get_create_plist, i32 noundef 2258, i64 noundef %15, i64 noundef %16, ptr noundef nonnull @.str.75) #11
  br label %40

18:                                               ; preds = %10
  %19 = getelementptr inbounds i8, ptr %4, i64 332
  %20 = tail call i32 @H5P_set(ptr noundef %1, ptr noundef nonnull @.str.17, ptr noundef nonnull %19) #11
  %21 = icmp slt i32 %20, 0
  br i1 %21, label %22, label %26

22:                                               ; preds = %18
  %23 = load i64, ptr @H5E_OHDR_g, align 8
  %24 = load i64, ptr @H5E_CANTSET_g, align 8
  %25 = tail call i32 (ptr, ptr, i32, i64, i64, ptr, ...) @H5E_printf_stack(ptr noundef nonnull @.str.4, ptr noundef nonnull @__func__.H5O_get_create_plist, i32 noundef 2260, i64 noundef %23, i64 noundef %24, ptr noundef nonnull @.str.76) #11
  br label %40

26:                                               ; preds = %18
  %27 = getelementptr inbounds i8, ptr %4, i64 289
  %28 = load i8, ptr %27, align 1
  %29 = and i8 %28, 44
  store i8 %29, ptr %3, align 1
  %30 = call i32 @H5P_set(ptr noundef %1, ptr noundef nonnull @.str.12, ptr noundef nonnull %3) #11
  %31 = icmp slt i32 %30, 0
  br i1 %31, label %32, label %40

32:                                               ; preds = %26
  %33 = load i64, ptr @H5E_PLIST_g, align 8
  %34 = load i64, ptr @H5E_CANTSET_g, align 8
  %35 = call i32 (ptr, ptr, i32, i64, i64, ptr, ...) @H5E_printf_stack(ptr noundef nonnull @.str.4, ptr noundef nonnull @__func__.H5O_get_create_plist, i32 noundef 2270, i64 noundef %33, i64 noundef %34, ptr noundef nonnull @.str.77) #11
  br label %40

36:                                               ; preds = %2
  %37 = load i64, ptr @H5E_OHDR_g, align 8
  %38 = load i64, ptr @H5E_CANTPROTECT_g, align 8
  %39 = tail call i32 (ptr, ptr, i32, i64, i64, ptr, ...) @H5E_printf_stack(ptr noundef nonnull @.str.4, ptr noundef nonnull @__func__.H5O_get_create_plist, i32 noundef 2249, i64 noundef %37, i64 noundef %38, ptr noundef nonnull @.str.41) #11
  br label %47

40:                                               ; preds = %6, %26, %32, %22, %14
  %.0.ph = phi i32 [ 0, %6 ], [ 0, %26 ], [ -1, %32 ], [ -1, %22 ], [ -1, %14 ]
  %41 = call i32 @H5O_unprotect(ptr noundef %0, ptr noundef nonnull %4, i32 noundef 0)
  %42 = icmp slt i32 %41, 0
  br i1 %42, label %43, label %47

43:                                               ; preds = %40
  %44 = load i64, ptr @H5E_OHDR_g, align 8
  %45 = load i64, ptr @H5E_CANTUNPROTECT_g, align 8
  %46 = call i32 (ptr, ptr, i32, i64, i64, ptr, ...) @H5E_printf_stack(ptr noundef nonnull @.str.4, ptr noundef nonnull @__func__.H5O_get_create_plist, i32 noundef 2275, i64 noundef %44, i64 noundef %45, ptr noundef nonnull @.str.47) #11
  br label %47

47:                                               ; preds = %36, %43, %40
  %.1 = phi i32 [ -1, %43 ], [ %.0.ph, %40 ], [ -1, %36 ]
  ret i32 %.1
}